target datalayout = "e-m:e-p270:32:32-p271:32:32-p272:64:64-i64:64-i128:128-f80:128-n8:16:32:64-S128"
target triple = "x86_64-pc-linux-gnu"

%struct.H5FA_dblock_t = type { %struct.H5C_cache_entry_t, ptr, ptr, ptr, ptr, i64, i64, i64, i64, i64, i64, i64 }
%struct.H5C_cache_entry_t = type { ptr, i64, i64, ptr, i8, ptr, i8, i8, i8, i8, i32, i8, i8, i8, i8, i8, i32, ptr, i32, i32, i32, i32, i32, i8, i8, ptr, ptr, ptr, ptr, ptr, ptr, i8, i32, i8, i64, ptr, i64, i64, i32, i8, i32, i32, i8, ptr, ptr, ptr }
%struct.H5FA_hdr_t = type { %struct.H5C_cache_entry_t, %struct.H5FA_create_t, i64, %struct.H5FA_stat_t, i64, i64, i64, ptr, i64, i8, i64, i64, ptr, i8, ptr, ptr }
%struct.H5FA_create_t = type { ptr, i8, i8, i64 }
%struct.H5FA_stat_t = type { i64, i64, i64 }
%struct.H5FA_class_t = type { i32, ptr, i64, ptr, ptr, ptr, ptr, ptr, ptr, ptr, ptr }

@H5FA_init_g = external global i8, align 1
@H5_libterm_g = external global i8, align 1
@.str.3 = private unnamed_addr constant [103 x i8] c"generated/home/dtcxzyw/WorkSpace/Projects/compilers/llvm-opt-benchmark/bench/hdf5/hdf5/src/H5FAcache.c\00", align 1
@H5E_FARRAY_g = external global i64, align 8
@.str.17 = private unnamed_addr constant [5 x i8] c"FADB\00", align 1
@__func__.H5FA__cache_dblock_serialize = private unnamed_addr constant [29 x i8] c"H5FA__cache_dblock_serialize\00", align 1
@H5E_CANTENCODE_g = external global i64, align 8
@.str.23 = private unnamed_addr constant [39 x i8] c"can't encode fixed array data elements\00", align 1

; Function Attrs: nounwind uwtable
define internal i32 @H5FA__cache_dblock_serialize(ptr noundef %0, ptr noundef %1, i64 noundef %2, ptr noundef %3) #0 {
  %5 = alloca ptr, align 8
  %6 = alloca ptr, align 8
  %7 = alloca i64, align 8
  %8 = alloca ptr, align 8
  %9 = alloca ptr, align 8
  %10 = alloca ptr, align 8
  %11 = alloca i32, align 4
  %12 = alloca i32, align 4
  %13 = alloca i8, align 1
  store ptr %0, ptr %5, align 8, !tbaa !58
  store ptr %1, ptr %6, align 8, !tbaa !3
  store i64 %2, ptr %7, align 8, !tbaa !19
  store ptr %3, ptr %8, align 8, !tbaa !3
  call void @llvm.lifetime.start.p0(i64 8, ptr %9) #7
  %14 = load ptr, ptr %8, align 8, !tbaa !3
  store ptr %14, ptr %9, align 8, !tbaa !71
  call void @llvm.lifetime.start.p0(i64 8, ptr %10) #7
  %15 = load ptr, ptr %6, align 8, !tbaa !3
  store ptr %15, ptr %10, align 8, !tbaa !20
  call void @llvm.lifetime.start.p0(i64 4, ptr %11) #7
  call void @llvm.lifetime.start.p0(i64 4, ptr %12) #7
  store i32 0, ptr %12, align 4, !tbaa !22
  call void @llvm.lifetime.start.p0(i64 1, ptr %13) #7
  store i8 0, ptr %13, align 1, !tbaa !11
  %16 = load i8, ptr @H5FA_init_g, align 1, !tbaa !11, !range !13, !noundef !14
  %17 = trunc i8 %16 to i1
  br i1 %17, label %22, label %18

18:                                               ; preds = %4
  %19 = load i8, ptr @H5_libterm_g, align 1, !tbaa !11, !range !13, !noundef !14
  %20 = trunc i8 %19 to i1
  %21 = xor i1 %20, true
  br label %22

22:                                               ; preds = %18, %4
  %23 = phi i1 [ true, %4 ], [ %21, %18 ]
  %24 = xor i1 %23, true
  %25 = xor i1 %24, true
  %26 = zext i1 %25 to i32
  %27 = sext i32 %26 to i64
  %28 = call i64 @llvm.expect.i64(i64 %27, i64 1)
  %29 = icmp ne i64 %28, 0
  br i1 %29, label %30, label %176

30:                                               ; preds = %22
  %31 = load ptr, ptr %10, align 8, !tbaa !20
  call void @llvm.memcpy.p0.p0.i64(ptr align 1 %31, ptr align 1 @.str.17, i64 4, i1 false)
  %32 = load ptr, ptr %10, align 8, !tbaa !20
  %33 = getelementptr inbounds i8, ptr %32, i64 4
  store ptr %33, ptr %10, align 8, !tbaa !20
  %34 = load ptr, ptr %10, align 8, !tbaa !20
  %35 = getelementptr inbounds nuw i8, ptr %34, i32 1
  store ptr %35, ptr %10, align 8, !tbaa !20
  store i8 0, ptr %34, align 1, !tbaa !41
  %36 = load ptr, ptr %9, align 8, !tbaa !71
  %37 = getelementptr inbounds nuw %struct.H5FA_dblock_t, ptr %36, i32 0, i32 3
  %38 = load ptr, ptr %37, align 8, !tbaa !50
  %39 = getelementptr inbounds nuw %struct.H5FA_hdr_t, ptr %38, i32 0, i32 1
  %40 = getelementptr inbounds nuw %struct.H5FA_create_t, ptr %39, i32 0, i32 0
  %41 = load ptr, ptr %40, align 8, !tbaa !43
  %42 = getelementptr inbounds nuw %struct.H5FA_class_t, ptr %41, i32 0, i32 0
  %43 = load i32, ptr %42, align 8, !tbaa !59
  %44 = trunc i32 %43 to i8
  %45 = load ptr, ptr %10, align 8, !tbaa !20
  %46 = getelementptr inbounds nuw i8, ptr %45, i32 1
  store ptr %46, ptr %10, align 8, !tbaa !20
  store i8 %44, ptr %45, align 1, !tbaa !41
  %47 = load ptr, ptr %5, align 8, !tbaa !58
  %48 = load ptr, ptr %9, align 8, !tbaa !71
  %49 = getelementptr inbounds nuw %struct.H5FA_dblock_t, ptr %48, i32 0, i32 3
  %50 = load ptr, ptr %49, align 8, !tbaa !50
  %51 = getelementptr inbounds nuw %struct.H5FA_hdr_t, ptr %50, i32 0, i32 5
  %52 = load i64, ptr %51, align 8, !tbaa !29
  call void @H5F_addr_encode(ptr noundef %47, ptr noundef %10, i64 noundef %52)
  %53 = load ptr, ptr %9, align 8, !tbaa !71
  %54 = getelementptr inbounds nuw %struct.H5FA_dblock_t, ptr %53, i32 0, i32 7
  %55 = load i64, ptr %54, align 8, !tbaa !53
  %56 = icmp ugt i64 %55, 0
  br i1 %56, label %57, label %70

57:                                               ; preds = %30
  %58 = load ptr, ptr %10, align 8, !tbaa !20
  %59 = load ptr, ptr %9, align 8, !tbaa !71
  %60 = getelementptr inbounds nuw %struct.H5FA_dblock_t, ptr %59, i32 0, i32 1
  %61 = load ptr, ptr %60, align 8, !tbaa !76
  %62 = load ptr, ptr %9, align 8, !tbaa !71
  %63 = getelementptr inbounds nuw %struct.H5FA_dblock_t, ptr %62, i32 0, i32 11
  %64 = load i64, ptr %63, align 8, !tbaa !52
  call void @llvm.memcpy.p0.p0.i64(ptr align 1 %58, ptr align 1 %61, i64 %64, i1 false)
  %65 = load ptr, ptr %9, align 8, !tbaa !71
  %66 = getelementptr inbounds nuw %struct.H5FA_dblock_t, ptr %65, i32 0, i32 11
  %67 = load i64, ptr %66, align 8, !tbaa !52
  %68 = load ptr, ptr %10, align 8, !tbaa !20
  %69 = getelementptr inbounds nuw i8, ptr %68, i64 %67
  store ptr %69, ptr %10, align 8, !tbaa !20
  br label %70

70:                                               ; preds = %57, %30
  %71 = load ptr, ptr %9, align 8, !tbaa !71
  %72 = getelementptr inbounds nuw %struct.H5FA_dblock_t, ptr %71, i32 0, i32 7
  %73 = load i64, ptr %72, align 8, !tbaa !53
  %74 = icmp ne i64 %73, 0
  br i1 %74, label %137, label %75

75:                                               ; preds = %70
  %76 = load ptr, ptr %9, align 8, !tbaa !71
  %77 = getelementptr inbounds nuw %struct.H5FA_dblock_t, ptr %76, i32 0, i32 3
  %78 = load ptr, ptr %77, align 8, !tbaa !50
  %79 = getelementptr inbounds nuw %struct.H5FA_hdr_t, ptr %78, i32 0, i32 1
  %80 = getelementptr inbounds nuw %struct.H5FA_create_t, ptr %79, i32 0, i32 0
  %81 = load ptr, ptr %80, align 8, !tbaa !43
  %82 = getelementptr inbounds nuw %struct.H5FA_class_t, ptr %81, i32 0, i32 6
  %83 = load ptr, ptr %82, align 8, !tbaa !81
  %84 = load ptr, ptr %10, align 8, !tbaa !20
  %85 = load ptr, ptr %9, align 8, !tbaa !71
  %86 = getelementptr inbounds nuw %struct.H5FA_dblock_t, ptr %85, i32 0, i32 2
  %87 = load ptr, ptr %86, align 8, !tbaa !78
  %88 = load ptr, ptr %9, align 8, !tbaa !71
  %89 = getelementptr inbounds nuw %struct.H5FA_dblock_t, ptr %88, i32 0, i32 3
  %90 = load ptr, ptr %89, align 8, !tbaa !50
  %91 = getelementptr inbounds nuw %struct.H5FA_hdr_t, ptr %90, i32 0, i32 1
  %92 = getelementptr inbounds nuw %struct.H5FA_create_t, ptr %91, i32 0, i32 3
  %93 = load i64, ptr %92, align 8, !tbaa !46
  %94 = load ptr, ptr %9, align 8, !tbaa !71
  %95 = getelementptr inbounds nuw %struct.H5FA_dblock_t, ptr %94, i32 0, i32 3
  %96 = load ptr, ptr %95, align 8, !tbaa !50
  %97 = getelementptr inbounds nuw %struct.H5FA_hdr_t, ptr %96, i32 0, i32 12
  %98 = load ptr, ptr %97, align 8, !tbaa !79
  %99 = call i32 %83(ptr noundef %84, ptr noundef %87, i64 noundef %93, ptr noundef %98)
  %100 = icmp slt i32 %99, 0
  br i1 %100, label %101, label %120

101:                                              ; preds = %75
  br label %102

102:                                              ; preds = %101
  br label %103

103:                                              ; preds = %102
  br label %104

104:                                              ; preds = %103
  %105 = load i64, ptr @H5E_FARRAY_g, align 8, !tbaa !19
  %106 = load i64, ptr @H5E_CANTENCODE_g, align 8, !tbaa !19
  %107 = call i32 (ptr, ptr, i32, i64, i64, ptr, ...) @H5E_printf_stack(ptr noundef @.str.3, ptr noundef @__func__.H5FA__cache_dblock_serialize, i32 noundef 780, i64 noundef %105, i64 noundef %106, ptr noundef @.str.23)
  br label %108

108:                                              ; preds = %104
  br label %109

109:                                              ; preds = %108
  store i8 1, ptr %13, align 1, !tbaa !11
  %110 = load i8, ptr %13, align 1, !tbaa !11, !range !13, !noundef !14
  %111 = trunc i8 %110 to i1
  %112 = zext i1 %111 to i8
  store i8 %112, ptr %13, align 1, !tbaa !11
  br label %113

113:                                              ; preds = %109
  br label %114

114:                                              ; preds = %113
  br label %115

115:                                              ; preds = %114
  store i32 -1, ptr %12, align 4, !tbaa !22
  br label %175

116:                                              ; No predecessors!
  br label %117

117:                                              ; preds = %116
  br label %118

118:                                              ; preds = %117
  br label %119

119:                                              ; preds = %118
  br label %120

120:                                              ; preds = %119, %75
  %121 = load ptr, ptr %9, align 8, !tbaa !71
  %122 = getelementptr inbounds nuw %struct.H5FA_dblock_t, ptr %121, i32 0, i32 3
  %123 = load ptr, ptr %122, align 8, !tbaa !50
  %124 = getelementptr inbounds nuw %struct.H5FA_hdr_t, ptr %123, i32 0, i32 1
  %125 = getelementptr inbounds nuw %struct.H5FA_create_t, ptr %124, i32 0, i32 3
  %126 = load i64, ptr %125, align 8, !tbaa !46
  %127 = load ptr, ptr %9, align 8, !tbaa !71
  %128 = getelementptr inbounds nuw %struct.H5FA_dblock_t, ptr %127, i32 0, i32 3
  %129 = load ptr, ptr %128, align 8, !tbaa !50
  %130 = getelementptr inbounds nuw %struct.H5FA_hdr_t, ptr %129, i32 0, i32 1
  %131 = getelementptr inbounds nuw %struct.H5FA_create_t, ptr %130, i32 0, i32 1
  %132 = load i8, ptr %131, align 8, !tbaa !44
  %133 = zext i8 %132 to i64
  %134 = mul i64 %126, %133
  %135 = load ptr, ptr %10, align 8, !tbaa !20
  %136 = getelementptr inbounds nuw i8, ptr %135, i64 %134
  store ptr %136, ptr %10, align 8, !tbaa !20
  br label %137

137:                                              ; preds = %120, %70
  %138 = load ptr, ptr %6, align 8, !tbaa !3
  %139 = load ptr, ptr %10, align 8, !tbaa !20
  %140 = load ptr, ptr %6, align 8, !tbaa !3
  %141 = ptrtoint ptr %139 to i64
  %142 = ptrtoint ptr %140 to i64
  %143 = sub i64 %141, %142
  %144 = call i32 @H5_checksum_metadata(ptr noundef %138, i64 noundef %143, i32 noundef 0)
  store i32 %144, ptr %11, align 4, !tbaa !22
  br label %145

145:                                              ; preds = %137
  %146 = load i32, ptr %11, align 4, !tbaa !22
  %147 = and i32 %146, 255
  %148 = trunc i32 %147 to i8
  %149 = load ptr, ptr %10, align 8, !tbaa !20
  store i8 %148, ptr %149, align 1, !tbaa !41
  %150 = load ptr, ptr %10, align 8, !tbaa !20
  %151 = getelementptr inbounds nuw i8, ptr %150, i32 1
  store ptr %151, ptr %10, align 8, !tbaa !20
  %152 = load i32, ptr %11, align 4, !tbaa !22
  %153 = lshr i32 %152, 8
  %154 = and i32 %153, 255
  %155 = trunc i32 %154 to i8
  %156 = load ptr, ptr %10, align 8, !tbaa !20
  store i8 %155, ptr %156, align 1, !tbaa !41
  %157 = load ptr, ptr %10, align 8, !tbaa !20
  %158 = getelementptr inbounds nuw i8, ptr %157, i32 1
  store ptr %158, ptr %10, align 8, !tbaa !20
  %159 = load i32, ptr %11, align 4, !tbaa !22
  %160 = lshr i32 %159, 16
  %161 = and i32 %160, 255
  %162 = trunc i32 %161 to i8
  %163 = load ptr, ptr %10, align 8, !tbaa !20
  store i8 %162, ptr %163, align 1, !tbaa !41
  %164 = load ptr, ptr %10, align 8, !tbaa !20
  %165 = getelementptr inbounds nuw i8, ptr %164, i32 1
  store ptr %165, ptr %10, align 8, !tbaa !20
  %166 = load i32, ptr %11, align 4, !tbaa !22
  %167 = lshr i32 %166, 24
  %168 = and i32 %167, 255
  %169 = trunc i32 %168 to i8
  %170 = load ptr, ptr %10, align 8, !tbaa !20
  store i8 %169, ptr %170, align 1, !tbaa !41
  %171 = load ptr, ptr %10, align 8, !tbaa !20
  %172 = getelementptr inbounds nuw i8, ptr %171, i32 1
  store ptr %172, ptr %10, align 8, !tbaa !20
  br label %173

173:                                              ; preds = %145
  br label %174

174:                                              ; preds = %173
  br label %175

175:                                              ; preds = %174, %115
  br label %176

176:                                              ; preds = %175, %22
  %177 = load i32, ptr %12, align 4, !tbaa !22
  call void @llvm.lifetime.end.p0(i64 1, ptr %13) #7
  call void @llvm.lifetime.end.p0(i64 4, ptr %12) #7
  call void @llvm.lifetime.end.p0(i64 4, ptr %11) #7
  call void @llvm.lifetime.end.p0(i64 8, ptr %10) #7
  call void @llvm.lifetime.end.p0(i64 8, ptr %9) #7
  ret i32 %177
}