; Function Attrs: nounwind uwtable
define internal range(i32 -1, 1) i32 @H5FA__cache_dblock_serialize(ptr noundef %0, ptr noundef %1, i64 %2, ptr noundef readonly captures(none) %3) #0 {
  %5 = alloca ptr, align 8
  call void @llvm.lifetime.start.p0(i64 8, ptr nonnull %5) #6
  %6 = load i8, ptr @H5FA_init_g, align 1, !tbaa !3, !range !7, !noundef !8
  %7 = trunc nuw i8 %6 to i1
  %8 = load i8, ptr @H5_libterm_g, align 1, !range !7
  %9 = trunc nuw i8 %8 to i1
  %10 = xor i1 %9, true
  %11 = select i1 %7, i1 true, i1 %10
  br i1 %11, label %12, label %83, !prof !9

12:                                               ; preds = %4
  store i32 1111769414, ptr %1, align 1
  %13 = getelementptr inbounds nuw i8, ptr %1, i64 4
  %14 = getelementptr inbounds nuw i8, ptr %1, i64 5
  store i8 0, ptr %13, align 1, !tbaa !34
  %15 = getelementptr inbounds nuw i8, ptr %3, i64 264
  %16 = load ptr, ptr %15, align 8, !tbaa !67
  %17 = getelementptr inbounds nuw i8, ptr %16, i64 248
  %18 = load ptr, ptr %17, align 8, !tbaa !36
  %19 = load i32, ptr %18, align 8, !tbaa !47
  %20 = trunc i32 %19 to i8
  %21 = getelementptr inbounds nuw i8, ptr %1, i64 6
  store ptr %21, ptr %5, align 8, !tbaa !18
  store i8 %20, ptr %14, align 1, !tbaa !34
  %22 = load ptr, ptr %15, align 8, !tbaa !67
  %23 = getelementptr inbounds nuw i8, ptr %22, i64 312
  %24 = load i64, ptr %23, align 8, !tbaa !21
  call void @H5F_addr_encode(ptr noundef %0, ptr noundef nonnull %5, i64 noundef %24) #6
  %25 = getelementptr inbounds nuw i8, ptr %3, i64 296
  %26 = load i64, ptr %25, align 8, !tbaa !61
  %.not = icmp eq i64 %26, 0
  %.pre = load ptr, ptr %5, align 8, !tbaa !18
  br i1 %.not, label %.thread, label %27

27:                                               ; preds = %12
  %28 = getelementptr inbounds nuw i8, ptr %3, i64 248
  %29 = load ptr, ptr %28, align 8, !tbaa !62
  %30 = getelementptr inbounds nuw i8, ptr %3, i64 328
  %31 = load i64, ptr %30, align 8, !tbaa !63
  call void @llvm.memcpy.p0.p0.i64(ptr align 1 %.pre, ptr align 1 %29, i64 %31, i1 false)
  %32 = load i64, ptr %30, align 8, !tbaa !63
  %33 = load ptr, ptr %5, align 8, !tbaa !18
  %34 = getelementptr inbounds nuw i8, ptr %33, i64 %32
  store ptr %34, ptr %5, align 8, !tbaa !18
  %.pr = load i64, ptr %25, align 8, !tbaa !61
  %.not23 = icmp eq i64 %.pr, 0
  br i1 %.not23, label %.thread, label %63

.thread:                                          ; preds = %12, %27
  %35 = phi ptr [ %.pre, %12 ], [ %34, %27 ]
  %36 = load ptr, ptr %15, align 8, !tbaa !67
  %37 = getelementptr inbounds nuw i8, ptr %36, i64 248
  %38 = load ptr, ptr %37, align 8, !tbaa !36
  %39 = getelementptr inbounds nuw i8, ptr %38, i64 48
  %40 = load ptr, ptr %39, align 8, !tbaa !69
  %41 = getelementptr inbounds nuw i8, ptr %3, i64 256
  %42 = load ptr, ptr %41, align 8, !tbaa !65
  %43 = getelementptr inbounds nuw i8, ptr %36, i64 264
  %44 = load i64, ptr %43, align 8, !tbaa !39
  %45 = getelementptr inbounds nuw i8, ptr %36, i64 368
  %46 = load ptr, ptr %45, align 8, !tbaa !66
  %47 = call i32 %40(ptr noundef %35, ptr noundef %42, i64 noundef %44, ptr noundef %46) #6
  %48 = icmp slt i32 %47, 0
  br i1 %48, label %49, label %53

49:                                               ; preds = %.thread
  %50 = load i64, ptr @H5E_FARRAY_g, align 8, !tbaa !15
  %51 = load i64, ptr @H5E_CANTENCODE_g, align 8, !tbaa !15
  %52 = call i32 (ptr, ptr, i32, i64, i64, ptr, ...) @H5E_printf_stack(ptr noundef nonnull @.str.3, ptr noundef nonnull @__func__.H5FA__cache_dblock_serialize, i32 noundef 780, i64 noundef %50, i64 noundef %51, ptr noundef nonnull @.str.23) #6
  br label %83

53:                                               ; preds = %.thread
  %54 = load ptr, ptr %15, align 8, !tbaa !67
  %55 = getelementptr inbounds nuw i8, ptr %54, i64 264
  %56 = load i64, ptr %55, align 8, !tbaa !39
  %57 = getelementptr inbounds nuw i8, ptr %54, i64 256
  %58 = load i8, ptr %57, align 8, !tbaa !37
  %59 = zext i8 %58 to i64
  %60 = mul i64 %56, %59
  %61 = load ptr, ptr %5, align 8, !tbaa !18
  %62 = getelementptr inbounds nuw i8, ptr %61, i64 %60
  store ptr %62, ptr %5, align 8, !tbaa !18
  br label %63

63:                                               ; preds = %53, %27
  %64 = phi ptr [ %62, %53 ], [ %34, %27 ]
  %65 = ptrtoint ptr %64 to i64
  %66 = ptrtoint ptr %1 to i64
  %67 = sub i64 %65, %66
  %68 = call i32 @H5_checksum_metadata(ptr noundef nonnull %1, i64 noundef %67, i32 noundef 0) #6
  %69 = trunc i32 %68 to i8
  %70 = load ptr, ptr %5, align 8, !tbaa !18
  store i8 %69, ptr %70, align 1, !tbaa !34
  %71 = load ptr, ptr %5, align 8, !tbaa !18
  %72 = getelementptr inbounds nuw i8, ptr %71, i64 1
  store ptr %72, ptr %5, align 8, !tbaa !18
  %73 = lshr i32 %68, 8
  %74 = trunc i32 %73 to i8
  store i8 %74, ptr %72, align 1, !tbaa !34
  %75 = load ptr, ptr %5, align 8, !tbaa !18
  %76 = getelementptr inbounds nuw i8, ptr %75, i64 1
  store ptr %76, ptr %5, align 8, !tbaa !18
  %77 = lshr i32 %68, 16
  %78 = trunc i32 %77 to i8
  store i8 %78, ptr %76, align 1, !tbaa !34
  %79 = load ptr, ptr %5, align 8, !tbaa !18
  %80 = getelementptr inbounds nuw i8, ptr %79, i64 1
  %81 = lshr i32 %68, 24
  %82 = trunc nuw i32 %81 to i8
  store i8 %82, ptr %80, align 1, !tbaa !34
  br label %83

83:                                               ; preds = %49, %63, %4
  %.0 = phi i32 [ 0, %63 ], [ -1, %49 ], [ 0, %4 ]
  call void @llvm.lifetime.end.p0(i64 8, ptr nonnull %5) #6
  ret i32 %.0
}